target datalayout = "e-m:e-p270:32:32-p271:32:32-p272:64:64-i64:64-i128:128-f80:128-n8:16:32:64-S128"
target triple = "x86_64-pc-linux-gnu"

%struct.mbedtls_ssl_config = type { i32, i32, i8, i8, i8, i8, i8, i8, i8, i8, i8, i8, i16, i8, i8, i8, ptr, i32, ptr, ptr, ptr, ptr, ptr, ptr, ptr, ptr, ptr, ptr, ptr, ptr, ptr, ptr, ptr, ptr, ptr, ptr, ptr, i64, ptr, ptr, ptr, ptr, ptr, ptr, ptr, ptr, %struct.mbedtls_mpi, %struct.mbedtls_mpi, ptr, i64, ptr, i64, ptr, i32, i32, i32, i32, [8 x i8], i32, i32, %union.mbedtls_ssl_user_data_t, ptr, ptr }
%struct.mbedtls_mpi = type { ptr, i16, i16 }
%union.mbedtls_ssl_user_data_t = type { i64 }
%struct.mbedtls_ssl_context = type { ptr, i32, i32, i32, i32, i32, ptr, ptr, ptr, ptr, ptr, ptr, ptr, ptr, ptr, ptr, ptr, ptr, ptr, ptr, ptr, ptr, ptr, ptr, ptr, ptr, ptr, ptr, ptr, ptr, ptr, ptr, ptr, i32, i64, i64, i16, i64, i64, i64, i64, i32, i32, i8, i8, i32, i8, ptr, ptr, ptr, ptr, ptr, ptr, ptr, i32, i64, i64, [8 x i8], i16, ptr, ptr, ptr, i64, i32, i64, [12 x i8], [12 x i8], [32 x i8], i8, i8, ptr, ptr, %union.mbedtls_ssl_user_data_t }
%struct.mbedtls_ssl_transform = type { i64, i64, i64, i64, i64, [16 x i8], [16 x i8], %struct.mbedtls_md_context_t, %struct.mbedtls_md_context_t, i32, i32, %struct.mbedtls_cipher_context_t, %struct.mbedtls_cipher_context_t, i8, i8, [32 x i8], [32 x i8], [64 x i8] }
%struct.mbedtls_md_context_t = type { ptr, ptr, ptr }
%struct.mbedtls_cipher_context_t = type { ptr, i32, i32, ptr, ptr, [16 x i8], i64, [16 x i8], i64, ptr, ptr }

; Function Attrs: inlinehint nounwind uwtable
define internal i32 @mbedtls_ssl_is_handshake_over(ptr noundef %0) #3 {
  %2 = alloca ptr, align 8
  store ptr %0, ptr %2, align 8, !tbaa !27
  %3 = load ptr, ptr %2, align 8, !tbaa !27
  %4 = getelementptr inbounds nuw %struct.mbedtls_ssl_context, ptr %3, i32 0, i32 1
  %5 = load i32, ptr %4, align 8, !tbaa !49
  %6 = icmp sge i32 %5, 27
  %7 = zext i1 %6 to i32
  ret i32 %7
}

; Function Attrs: nounwind uwtable
define hidden i32 @mbedtls_ssl_get_peer_cid(ptr noundef %0, ptr noundef %1, ptr noundef %2, ptr noundef %3) #0 {
  %5 = alloca i32, align 4
  %6 = alloca ptr, align 8
  %7 = alloca ptr, align 8
  %8 = alloca ptr, align 8
  %9 = alloca ptr, align 8
  store ptr %0, ptr %6, align 8, !tbaa !27
  store ptr %1, ptr %7, align 8, !tbaa !38
  store ptr %2, ptr %8, align 8, !tbaa !29
  store ptr %3, ptr %9, align 8, !tbaa !39
  %10 = load ptr, ptr %7, align 8, !tbaa !38
  store i32 0, ptr %10, align 4, !tbaa !10
  %11 = load ptr, ptr %6, align 8, !tbaa !27
  %12 = getelementptr inbounds nuw %struct.mbedtls_ssl_context, ptr %11, i32 0, i32 0
  %13 = load ptr, ptr %12, align 8, !tbaa !30
  %14 = getelementptr inbounds nuw %struct.mbedtls_ssl_config, ptr %13, i32 0, i32 3
  %15 = load i8, ptr %14, align 1, !tbaa !35
  %16 = zext i8 %15 to i32
  %17 = icmp ne i32 %16, 1
  br i1 %17, label %22, label %18

18:                                               ; preds = %4
  %19 = load ptr, ptr %6, align 8, !tbaa !27
  %20 = call i32 @mbedtls_ssl_is_handshake_over(ptr noundef %19)
  %21 = icmp eq i32 %20, 0
  br i1 %21, label %22, label %23

22:                                               ; preds = %18, %4
  store i32 -28928, ptr %5, align 4
  br label %69

23:                                               ; preds = %18
  %24 = load ptr, ptr %6, align 8, !tbaa !27
  %25 = getelementptr inbounds nuw %struct.mbedtls_ssl_context, ptr %24, i32 0, i32 17
  %26 = load ptr, ptr %25, align 8, !tbaa !40
  %27 = getelementptr inbounds nuw %struct.mbedtls_ssl_transform, ptr %26, i32 0, i32 13
  %28 = load i8, ptr %27, align 8, !tbaa !41
  %29 = zext i8 %28 to i32
  %30 = icmp eq i32 %29, 0
  br i1 %30, label %31, label %40

31:                                               ; preds = %23
  %32 = load ptr, ptr %6, align 8, !tbaa !27
  %33 = getelementptr inbounds nuw %struct.mbedtls_ssl_context, ptr %32, i32 0, i32 17
  %34 = load ptr, ptr %33, align 8, !tbaa !40
  %35 = getelementptr inbounds nuw %struct.mbedtls_ssl_transform, ptr %34, i32 0, i32 14
  %36 = load i8, ptr %35, align 1, !tbaa !48
  %37 = zext i8 %36 to i32
  %38 = icmp eq i32 %37, 0
  br i1 %38, label %39, label %40

39:                                               ; preds = %31
  store i32 0, ptr %5, align 4
  br label %69

40:                                               ; preds = %31, %23
  %41 = load ptr, ptr %9, align 8, !tbaa !39
  %42 = icmp ne ptr %41, null
  br i1 %42, label %43, label %67

43:                                               ; preds = %40
  %44 = load ptr, ptr %6, align 8, !tbaa !27
  %45 = getelementptr inbounds nuw %struct.mbedtls_ssl_context, ptr %44, i32 0, i32 17
  %46 = load ptr, ptr %45, align 8, !tbaa !40
  %47 = getelementptr inbounds nuw %struct.mbedtls_ssl_transform, ptr %46, i32 0, i32 14
  %48 = load i8, ptr %47, align 1, !tbaa !48
  %49 = zext i8 %48 to i64
  %50 = load ptr, ptr %9, align 8, !tbaa !39
  store i64 %49, ptr %50, align 8, !tbaa !8
  %51 = load ptr, ptr %8, align 8, !tbaa !29
  %52 = icmp ne ptr %51, null
  br i1 %52, label %53, label %66

53:                                               ; preds = %43
  %54 = load ptr, ptr %8, align 8, !tbaa !29
  %55 = load ptr, ptr %6, align 8, !tbaa !27
  %56 = getelementptr inbounds nuw %struct.mbedtls_ssl_context, ptr %55, i32 0, i32 17
  %57 = load ptr, ptr %56, align 8, !tbaa !40
  %58 = getelementptr inbounds nuw %struct.mbedtls_ssl_transform, ptr %57, i32 0, i32 16
  %59 = getelementptr inbounds [32 x i8], ptr %58, i64 0, i64 0
  %60 = load ptr, ptr %6, align 8, !tbaa !27
  %61 = getelementptr inbounds nuw %struct.mbedtls_ssl_context, ptr %60, i32 0, i32 17
  %62 = load ptr, ptr %61, align 8, !tbaa !40
  %63 = getelementptr inbounds nuw %struct.mbedtls_ssl_transform, ptr %62, i32 0, i32 14
  %64 = load i8, ptr %63, align 1, !tbaa !48
  %65 = zext i8 %64 to i64
  call void @llvm.memcpy.p0.p0.i64(ptr align 1 %54, ptr align 2 %59, i64 %65, i1 false)
  br label %66

66:                                               ; preds = %53, %43
  br label %67

67:                                               ; preds = %66, %40
  %68 = load ptr, ptr %7, align 8, !tbaa !38
  store i32 1, ptr %68, align 4, !tbaa !10
  store i32 0, ptr %5, align 4
  br label %69

69:                                               ; preds = %67, %39, %22
  %70 = load i32, ptr %5, align 4
  ret i32 %70
}