; Function Attrs: mustprogress nofree norecurse nosync nounwind willreturn memory(readwrite, inaccessiblemem: none) uwtable
define hidden range(i32 -28928, 1) i32 @mbedtls_ssl_get_peer_cid(ptr noundef readonly captures(none) %0, ptr noundef writeonly captures(none) initializes((0, 4)) %1, ptr noundef writeonly %2, ptr noundef writeonly %3) local_unnamed_addr #5 {
  store i32 0, ptr %1, align 4, !tbaa !32
  %5 = load ptr, ptr %0, align 8, !tbaa !23
  %6 = getelementptr inbounds nuw i8, ptr %5, i64 9
  %7 = load i8, ptr %6, align 1, !tbaa !29
  %.not = icmp eq i8 %7, 1
  br i1 %.not, label %8, label %29

8:                                                ; preds = %4
  %9 = getelementptr i8, ptr %0, i64 8
  %.val = load i32, ptr %9, align 8, !tbaa !34
  %10 = icmp slt i32 %.val, 27
  br i1 %10, label %29, label %11

11:                                               ; preds = %8
  %12 = getelementptr inbounds nuw i8, ptr %0, i64 120
  %13 = load ptr, ptr %12, align 8, !tbaa !35
  %14 = getelementptr inbounds nuw i8, ptr %13, i64 320
  %15 = load i8, ptr %14, align 8, !tbaa !36
  %16 = icmp eq i8 %15, 0
  br i1 %16, label %17, label %21

17:                                               ; preds = %11
  %18 = getelementptr inbounds nuw i8, ptr %13, i64 321
  %19 = load i8, ptr %18, align 1, !tbaa !43
  %20 = icmp eq i8 %19, 0
  br i1 %20, label %29, label %21

21:                                               ; preds = %17, %11
  %.not15 = icmp eq ptr %3, null
  br i1 %.not15, label %28, label %22

22:                                               ; preds = %21
  %23 = getelementptr inbounds nuw i8, ptr %13, i64 321
  %24 = load i8, ptr %23, align 1, !tbaa !43
  %25 = zext i8 %24 to i64
  store i64 %25, ptr %3, align 8, !tbaa !33
  %.not16 = icmp eq ptr %2, null
  br i1 %.not16, label %28, label %26

26:                                               ; preds = %22
  %27 = getelementptr inbounds nuw i8, ptr %13, i64 354
  tail call void @llvm.memcpy.p0.p0.i64(ptr nonnull align 1 %2, ptr nonnull align 2 %27, i64 %25, i1 false)
  br label %28

28:                                               ; preds = %22, %26, %21
  store i32 1, ptr %1, align 4, !tbaa !32
  br label %29

29:                                               ; preds = %17, %4, %8, %28
  %.0 = phi i32 [ 0, %28 ], [ -28928, %8 ], [ -28928, %4 ], [ 0, %17 ]
  ret i32 %.0
}